target datalayout = "e-m:e-p270:32:32-p271:32:32-p272:64:64-i64:64-i128:128-f80:128-n8:16:32:64-S128"
target triple = "x86_64-pc-linux-gnu"

%struct.ParseCallbackState = type { ptr, i32, %struct.ErrorContextCallback }
%struct.ErrorContextCallback = type { ptr, ptr, ptr }

@error_context_stack = external global ptr, align 8

; Function Attrs: nounwind uwtable
define dso_local void @setup_parser_errposition_callback(ptr noundef %0, ptr noundef %1, i32 noundef %2) #0 {
  %4 = alloca ptr, align 8
  %5 = alloca ptr, align 8
  %6 = alloca i32, align 4
  store ptr %0, ptr %4, align 8
  store ptr %1, ptr %5, align 8
  store i32 %2, ptr %6, align 4
  %7 = load ptr, ptr %5, align 8
  %8 = load ptr, ptr %4, align 8
  %9 = getelementptr inbounds nuw %struct.ParseCallbackState, ptr %8, i32 0, i32 0
  store ptr %7, ptr %9, align 8
  %10 = load i32, ptr %6, align 4
  %11 = load ptr, ptr %4, align 8
  %12 = getelementptr inbounds nuw %struct.ParseCallbackState, ptr %11, i32 0, i32 1
  store i32 %10, ptr %12, align 8
  %13 = load ptr, ptr %4, align 8
  %14 = getelementptr inbounds nuw %struct.ParseCallbackState, ptr %13, i32 0, i32 2
  %15 = getelementptr inbounds nuw %struct.ErrorContextCallback, ptr %14, i32 0, i32 1
  store ptr @pcb_error_callback, ptr %15, align 8
  %16 = load ptr, ptr %4, align 8
  %17 = load ptr, ptr %4, align 8
  %18 = getelementptr inbounds nuw %struct.ParseCallbackState, ptr %17, i32 0, i32 2
  %19 = getelementptr inbounds nuw %struct.ErrorContextCallback, ptr %18, i32 0, i32 2
  store ptr %16, ptr %19, align 8
  %20 = load ptr, ptr @error_context_stack, align 8
  %21 = load ptr, ptr %4, align 8
  %22 = getelementptr inbounds nuw %struct.ParseCallbackState, ptr %21, i32 0, i32 2
  %23 = getelementptr inbounds nuw %struct.ErrorContextCallback, ptr %22, i32 0, i32 0
  store ptr %20, ptr %23, align 8
  %24 = load ptr, ptr %4, align 8
  %25 = getelementptr inbounds nuw %struct.ParseCallbackState, ptr %24, i32 0, i32 2
  store ptr %25, ptr @error_context_stack, align 8
  ret void
}