; Function Attrs: mustprogress nofree norecurse nosync nounwind willreturn memory(readwrite, argmem: write, inaccessiblemem: none) uwtable
define dso_local void @setup_parser_errposition_callback(ptr noundef initializes((0, 12), (24, 32)) %0, ptr noundef %1, i32 noundef %2) local_unnamed_addr #4 {
  store ptr %1, ptr %0, align 8
  %4 = getelementptr inbounds nuw i8, ptr %0, i64 8
  store i32 %2, ptr %4, align 8
  %5 = getelementptr inbounds nuw i8, ptr %0, i64 16
  %6 = getelementptr inbounds nuw i8, ptr %0, i64 24
  store ptr @pcb_error_callback, ptr %6, align 8
  %7 = getelementptr inbounds nuw i8, ptr %0, i64 32
  store ptr %0, ptr %7, align 8
  %8 = load ptr, ptr @error_context_stack, align 8
  store ptr %8, ptr %5, align 8
  store ptr %5, ptr @error_context_stack, align 8
  ret void
}